target datalayout = "e-m:e-p270:32:32-p271:32:32-p272:64:64-i64:64-i128:128-f80:128-n8:16:32:64-S128"
target triple = "x86_64-pc-linux-gnu"

%struct.AVFilterContext = type { ptr, ptr, ptr, ptr, ptr, i32, ptr, ptr, i32, ptr, ptr, i32, i32, ptr, ptr, ptr, ptr, i32, ptr, i32, i32 }
%struct.TestSourceContext = type { ptr, i32, i32, i32, i32, i32, %struct.AVRational, %struct.AVRational, i64, i64, %struct.AVRational, i32, i32, ptr, ptr, i32, i32, [4 x i8], i32, %struct.FFDrawContext, %struct.FFDrawColor, [4 x i8], [4 x i8], i32, i32, i32, i32, i32, i32, i32, i32, i32, i32, i32, i32, i32, i32, i32, i32, i32, i32, i32, ptr, ptr }
%struct.AVRational = type { i32, i32 }
%struct.FFDrawContext = type { ptr, i32, i32, [4 x i32], [4 x i8], [4 x i8], i8, i8, i32, i32, i32, [3 x [3 x double]] }
%struct.FFDrawColor = type { [4 x i8], [4 x %union.anon.2] }
%union.anon.2 = type { [4 x i32] }
%struct.AVFilterLink = type { ptr, ptr, ptr, ptr, i32, i32, i32, i32, %struct.AVRational, i32, i32, i32, %struct.AVChannelLayout, %struct.AVRational, ptr, i32, %struct.AVFilterFormatsConfig, %struct.AVFilterFormatsConfig }
%struct.AVChannelLayout = type { i32, i32, %union.anon.1, ptr }
%union.anon.1 = type { i64 }
%struct.AVFilterFormatsConfig = type { ptr, ptr, ptr, ptr, ptr }
%struct.AVFrame = type { [8 x ptr], [8 x i32], ptr, i32, i32, i32, i32, i32, %struct.AVRational, i64, i64, %struct.AVRational, i32, ptr, i32, i32, [8 x ptr], ptr, i32, ptr, i32, i32, i32, i32, i32, i32, i32, i64, ptr, i32, ptr, ptr, i64, i64, i64, i64, ptr, %struct.AVChannelLayout, i64 }

; Function Attrs: nounwind uwtable
define internal void @rgbtest_fill_picture(ptr noundef %0, ptr noundef %1) #1 {
  %3 = alloca ptr, align 8
  %4 = alloca ptr, align 8
  %5 = alloca ptr, align 8
  %6 = alloca i32, align 4
  %7 = alloca i32, align 4
  %8 = alloca i32, align 4
  %9 = alloca i32, align 4
  %10 = alloca i32, align 4
  %11 = alloca i32, align 4
  %12 = alloca i32, align 4
  %13 = alloca i32, align 4
  store ptr %0, ptr %3, align 8, !tbaa !4
  store ptr %1, ptr %4, align 8, !tbaa !55
  call void @llvm.lifetime.start.p0(i64 8, ptr %5) #15
  %14 = load ptr, ptr %3, align 8, !tbaa !4
  %15 = getelementptr inbounds nuw %struct.AVFilterContext, ptr %14, i32 0, i32 9
  %16 = load ptr, ptr %15, align 8, !tbaa !9
  store ptr %16, ptr %5, align 8, !tbaa !22
  call void @llvm.lifetime.start.p0(i64 4, ptr %6) #15
  call void @llvm.lifetime.start.p0(i64 4, ptr %7) #15
  call void @llvm.lifetime.start.p0(i64 4, ptr %8) #15
  %17 = load ptr, ptr %4, align 8, !tbaa !55
  %18 = getelementptr inbounds nuw %struct.AVFrame, ptr %17, i32 0, i32 3
  %19 = load i32, ptr %18, align 8, !tbaa !87
  store i32 %19, ptr %8, align 4, !tbaa !36
  call void @llvm.lifetime.start.p0(i64 4, ptr %9) #15
  %20 = load ptr, ptr %4, align 8, !tbaa !55
  %21 = getelementptr inbounds nuw %struct.AVFrame, ptr %20, i32 0, i32 4
  %22 = load i32, ptr %21, align 4, !tbaa !88
  store i32 %22, ptr %9, align 4, !tbaa !36
  store i32 0, ptr %7, align 4, !tbaa !36
  br label %23

23:                                               ; preds = %93, %2
  %24 = load i32, ptr %7, align 4, !tbaa !36
  %25 = load i32, ptr %9, align 4, !tbaa !36
  %26 = icmp slt i32 %24, %25
  br i1 %26, label %27, label %96

27:                                               ; preds = %23
  store i32 0, ptr %6, align 4, !tbaa !36
  br label %28

28:                                               ; preds = %89, %27
  %29 = load i32, ptr %6, align 4, !tbaa !36
  %30 = load i32, ptr %8, align 4, !tbaa !36
  %31 = icmp slt i32 %29, %30
  br i1 %31, label %32, label %92

32:                                               ; preds = %28
  call void @llvm.lifetime.start.p0(i64 4, ptr %10) #15
  %33 = load ptr, ptr %5, align 8, !tbaa !22
  %34 = getelementptr inbounds nuw %struct.TestSourceContext, ptr %33, i32 0, i32 24
  %35 = load i32, ptr %34, align 8, !tbaa !135
  %36 = icmp sgt i32 %35, 8
  br i1 %36, label %37, label %41

37:                                               ; preds = %32
  %38 = load ptr, ptr %5, align 8, !tbaa !22
  %39 = getelementptr inbounds nuw %struct.TestSourceContext, ptr %38, i32 0, i32 24
  %40 = load i32, ptr %39, align 8, !tbaa !135
  br label %42

41:                                               ; preds = %32
  br label %42

42:                                               ; preds = %41, %37
  %43 = phi i32 [ %40, %37 ], [ 8, %41 ]
  %44 = shl i32 1, %43
  %45 = load i32, ptr %6, align 4, !tbaa !36
  %46 = mul nsw i32 %44, %45
  %47 = load i32, ptr %8, align 4, !tbaa !36
  %48 = sdiv i32 %46, %47
  store i32 %48, ptr %10, align 4, !tbaa !36
  call void @llvm.lifetime.start.p0(i64 4, ptr %11) #15
  store i32 0, ptr %11, align 4, !tbaa !36
  call void @llvm.lifetime.start.p0(i64 4, ptr %12) #15
  store i32 0, ptr %12, align 4, !tbaa !36
  call void @llvm.lifetime.start.p0(i64 4, ptr %13) #15
  store i32 0, ptr %13, align 4, !tbaa !36
  %49 = load i32, ptr %7, align 4, !tbaa !36
  %50 = mul nsw i32 3, %49
  %51 = load i32, ptr %9, align 4, !tbaa !36
  %52 = icmp slt i32 %50, %51
  br i1 %52, label %53, label %55

53:                                               ; preds = %42
  %54 = load i32, ptr %10, align 4, !tbaa !36
  store i32 %54, ptr %11, align 4, !tbaa !36
  br label %66

55:                                               ; preds = %42
  %56 = load i32, ptr %7, align 4, !tbaa !36
  %57 = mul nsw i32 3, %56
  %58 = load i32, ptr %9, align 4, !tbaa !36
  %59 = mul nsw i32 2, %58
  %60 = icmp slt i32 %57, %59
  br i1 %60, label %61, label %63

61:                                               ; preds = %55
  %62 = load i32, ptr %10, align 4, !tbaa !36
  store i32 %62, ptr %12, align 4, !tbaa !36
  br label %65

63:                                               ; preds = %55
  %64 = load i32, ptr %10, align 4, !tbaa !36
  store i32 %64, ptr %13, align 4, !tbaa !36
  br label %65

65:                                               ; preds = %63, %61
  br label %66

66:                                               ; preds = %65, %53
  %67 = load ptr, ptr %4, align 8, !tbaa !55
  %68 = getelementptr inbounds nuw %struct.AVFrame, ptr %67, i32 0, i32 0
  %69 = getelementptr inbounds [8 x ptr], ptr %68, i64 0, i64 0
  %70 = load ptr, ptr %4, align 8, !tbaa !55
  %71 = getelementptr inbounds nuw %struct.AVFrame, ptr %70, i32 0, i32 1
  %72 = getelementptr inbounds [8 x i32], ptr %71, i64 0, i64 0
  %73 = load i32, ptr %6, align 4, !tbaa !36
  %74 = load i32, ptr %7, align 4, !tbaa !36
  %75 = load i32, ptr %11, align 4, !tbaa !36
  %76 = load i32, ptr %12, align 4, !tbaa !36
  %77 = load i32, ptr %13, align 4, !tbaa !36
  %78 = load i32, ptr %10, align 4, !tbaa !36
  %79 = load ptr, ptr %3, align 8, !tbaa !4
  %80 = getelementptr inbounds nuw %struct.AVFilterContext, ptr %79, i32 0, i32 7
  %81 = load ptr, ptr %80, align 8, !tbaa !38
  %82 = getelementptr inbounds ptr, ptr %81, i64 0
  %83 = load ptr, ptr %82, align 8, !tbaa !39
  %84 = getelementptr inbounds nuw %struct.AVFilterLink, ptr %83, i32 0, i32 5
  %85 = load i32, ptr %84, align 4, !tbaa !78
  %86 = load ptr, ptr %5, align 8, !tbaa !22
  %87 = getelementptr inbounds nuw %struct.TestSourceContext, ptr %86, i32 0, i32 22
  %88 = getelementptr inbounds [4 x i8], ptr %87, i64 0, i64 0
  call void @rgbtest_put_pixel(ptr noundef %69, ptr noundef %72, i32 noundef %73, i32 noundef %74, i32 noundef %75, i32 noundef %76, i32 noundef %77, i32 noundef %78, i32 noundef %85, ptr noundef %88)
  call void @llvm.lifetime.end.p0(i64 4, ptr %13) #15
  call void @llvm.lifetime.end.p0(i64 4, ptr %12) #15
  call void @llvm.lifetime.end.p0(i64 4, ptr %11) #15
  call void @llvm.lifetime.end.p0(i64 4, ptr %10) #15
  br label %89

89:                                               ; preds = %66
  %90 = load i32, ptr %6, align 4, !tbaa !36
  %91 = add nsw i32 %90, 1
  store i32 %91, ptr %6, align 4, !tbaa !36
  br label %28, !llvm.loop !138

92:                                               ; preds = %28
  br label %93

93:                                               ; preds = %92
  %94 = load i32, ptr %7, align 4, !tbaa !36
  %95 = add nsw i32 %94, 1
  store i32 %95, ptr %7, align 4, !tbaa !36
  br label %23, !llvm.loop !139

96:                                               ; preds = %23
  call void @llvm.lifetime.end.p0(i64 4, ptr %9) #15
  call void @llvm.lifetime.end.p0(i64 4, ptr %8) #15
  call void @llvm.lifetime.end.p0(i64 4, ptr %7) #15
  call void @llvm.lifetime.end.p0(i64 4, ptr %6) #15
  call void @llvm.lifetime.end.p0(i64 8, ptr %5) #15
  ret void
}