; Function Attrs: nounwind uwtable
define internal void @rgbtest_fill_picture(ptr noundef readonly captures(none) %0, ptr noundef readonly captures(none) %1) #1 {
  %3 = getelementptr inbounds nuw i8, ptr %1, i64 104
  %4 = load i32, ptr %3, align 8, !tbaa !67
  %5 = getelementptr inbounds nuw i8, ptr %1, i64 108
  %6 = load i32, ptr %5, align 4, !tbaa !68
  %7 = icmp sgt i32 %6, 0
  br i1 %7, label %.preheader.lr.ph, label %._crit_edge41

.preheader.lr.ph:                                 ; preds = %2
  %8 = getelementptr inbounds nuw i8, ptr %0, i64 72
  %9 = load ptr, ptr %8, align 8, !tbaa !4
  %10 = icmp sgt i32 %4, 0
  %11 = getelementptr inbounds nuw i8, ptr %9, i64 320
  %12 = shl nuw nsw i32 %6, 1
  %13 = getelementptr inbounds nuw i8, ptr %1, i64 64
  %14 = getelementptr inbounds nuw i8, ptr %0, i64 56
  %15 = getelementptr inbounds nuw i8, ptr %9, i64 312
  br i1 %10, label %.preheader.us, label %._crit_edge41

.preheader.us:                                    ; preds = %.preheader.lr.ph, %._crit_edge.us
  %.03239.us = phi i32 [ %28, %._crit_edge.us ], [ 0, %.preheader.lr.ph ]
  %16 = mul nuw nsw i32 %.03239.us, 3
  %17 = icmp slt i32 %16, %6
  %18 = icmp samesign ult i32 %16, %12
  %.fr.us = freeze i1 %18
  %19 = or i1 %17, %.fr.us
  br i1 %.fr.us, label %.lr.ph.split.us.us, label %.lr.ph.split.us47

.lr.ph.split.us47:                                ; preds = %.preheader.us, %.lr.ph.split.us47
  %.03138.us42 = phi i32 [ %27, %.lr.ph.split.us47 ], [ 0, %.preheader.us ]
  %20 = load i32, ptr %11, align 8, !tbaa !108
  %spec.select.us43 = tail call i32 @llvm.smax.i32(i32 %20, i32 8)
  %21 = shl i32 %.03138.us42, %spec.select.us43
  %22 = sdiv i32 %21, %4
  %.030.us44 = select i1 %17, i32 %22, i32 0
  %.0.us45 = select i1 %19, i32 0, i32 %22
  %23 = load ptr, ptr %14, align 8, !tbaa !30
  %24 = load ptr, ptr %23, align 8, !tbaa !31
  %25 = getelementptr inbounds nuw i8, ptr %24, i64 36
  %26 = load i32, ptr %25, align 4, !tbaa !61
  tail call fastcc void @rgbtest_put_pixel(ptr noundef %1, ptr noundef nonnull %13, i32 noundef %.03138.us42, i32 noundef %.03239.us, i32 noundef %.030.us44, i32 noundef 0, i32 noundef %.0.us45, i32 noundef %22, i32 noundef %26, ptr noundef nonnull %15)
  %27 = add nuw nsw i32 %.03138.us42, 1
  %exitcond.not = icmp eq i32 %27, %4
  br i1 %exitcond.not, label %._crit_edge.us, label %.lr.ph.split.us47, !llvm.loop !111

._crit_edge.us:                                   ; preds = %.lr.ph.split.us47, %.lr.ph.split.us.us
  %28 = add nuw nsw i32 %.03239.us, 1
  %exitcond51.not = icmp eq i32 %28, %6
  br i1 %exitcond51.not, label %._crit_edge41, label %.preheader.us, !llvm.loop !112

.lr.ph.split.us.us:                               ; preds = %.preheader.us, %.lr.ph.split.us.us
  %.03138.us.us = phi i32 [ %36, %.lr.ph.split.us.us ], [ 0, %.preheader.us ]
  %29 = load i32, ptr %11, align 8, !tbaa !108
  %spec.select.us.us = tail call i32 @llvm.smax.i32(i32 %29, i32 8)
  %30 = shl i32 %.03138.us.us, %spec.select.us.us
  %31 = sdiv i32 %30, %4
  %.030.us.us = select i1 %17, i32 %31, i32 0
  %.029.us.us = select i1 %17, i32 0, i32 %31
  %32 = load ptr, ptr %14, align 8, !tbaa !30
  %33 = load ptr, ptr %32, align 8, !tbaa !31
  %34 = getelementptr inbounds nuw i8, ptr %33, i64 36
  %35 = load i32, ptr %34, align 4, !tbaa !61
  tail call fastcc void @rgbtest_put_pixel(ptr noundef nonnull %1, ptr noundef nonnull %13, i32 noundef %.03138.us.us, i32 noundef %.03239.us, i32 noundef %.030.us.us, i32 noundef %.029.us.us, i32 noundef 0, i32 noundef %31, i32 noundef %35, ptr noundef nonnull %15)
  %36 = add nuw nsw i32 %.03138.us.us, 1
  %exitcond50.not = icmp eq i32 %36, %4
  br i1 %exitcond50.not, label %._crit_edge.us, label %.lr.ph.split.us.us, !llvm.loop !111

._crit_edge41:                                    ; preds = %._crit_edge.us, %.preheader.lr.ph, %2
  ret void
}